target datalayout = "e-m:e-p270:32:32-p271:32:32-p272:64:64-i64:64-i128:128-f80:128-n8:16:32:64-S128"
target triple = "x86_64-pc-linux-gnu"

%"class.Assimp::Ogre::VertexElement" = type { i16, i16, i16, i32, i32 }
%"class.Assimp::Ogre::IVertexData" = type { i32, %"class.std::vector", %"class.std::map", %"class.std::map.6" }
%"class.std::vector" = type { %"struct.std::_Vector_base" }
%"struct.std::_Vector_base" = type { %"struct.std::_Vector_base<Assimp::Ogre::VertexBoneAssignment, std::allocator<Assimp::Ogre::VertexBoneAssignment>>::_Vector_impl" }
%"struct.std::_Vector_base<Assimp::Ogre::VertexBoneAssignment, std::allocator<Assimp::Ogre::VertexBoneAssignment>>::_Vector_impl" = type { %"struct.std::_Vector_base<Assimp::Ogre::VertexBoneAssignment, std::allocator<Assimp::Ogre::VertexBoneAssignment>>::_Vector_impl_data" }
%"struct.std::_Vector_base<Assimp::Ogre::VertexBoneAssignment, std::allocator<Assimp::Ogre::VertexBoneAssignment>>::_Vector_impl_data" = type { ptr, ptr, ptr }
%"class.std::map" = type { %"class.std::_Rb_tree" }
%"class.std::_Rb_tree" = type { %"struct.std::_Rb_tree<unsigned int, std::pair<const unsigned int, std::vector<unsigned int>>, std::_Select1st<std::pair<const unsigned int, std::vector<unsigned int>>>, std::less<unsigned int>>::_Rb_tree_impl" }
%"struct.std::_Rb_tree<unsigned int, std::pair<const unsigned int, std::vector<unsigned int>>, std::_Select1st<std::pair<const unsigned int, std::vector<unsigned int>>>, std::less<unsigned int>>::_Rb_tree_impl" = type { [8 x i8], %"struct.std::_Rb_tree_header" }
%"struct.std::_Rb_tree_header" = type { %"struct.std::_Rb_tree_node_base", i64 }
%"struct.std::_Rb_tree_node_base" = type { i32, ptr, ptr, ptr }
%"class.std::map.6" = type { %"class.std::_Rb_tree.7" }
%"class.std::_Rb_tree.7" = type { %"struct.std::_Rb_tree<unsigned int, std::pair<const unsigned int, std::vector<Assimp::Ogre::VertexBoneAssignment>>, std::_Select1st<std::pair<const unsigned int, std::vector<Assimp::Ogre::VertexBoneAssignment>>>, std::less<unsigned int>>::_Rb_tree_impl" }
%"struct.std::_Rb_tree<unsigned int, std::pair<const unsigned int, std::vector<Assimp::Ogre::VertexBoneAssignment>>, std::_Select1st<std::pair<const unsigned int, std::vector<Assimp::Ogre::VertexBoneAssignment>>>, std::less<unsigned int>>::_Rb_tree_impl" = type { [8 x i8], %"struct.std::_Rb_tree_header" }
%"class.Assimp::Ogre::VertexData" = type { %"class.Assimp::Ogre::IVertexData", %"class.std::vector.32", %"class.std::map.37" }
%"class.std::vector.32" = type { %"struct.std::_Vector_base.33" }
%"struct.std::_Vector_base.33" = type { %"struct.std::_Vector_base<Assimp::Ogre::VertexElement, std::allocator<Assimp::Ogre::VertexElement>>::_Vector_impl" }
%"struct.std::_Vector_base<Assimp::Ogre::VertexElement, std::allocator<Assimp::Ogre::VertexElement>>::_Vector_impl" = type { %"struct.std::_Vector_base<Assimp::Ogre::VertexElement, std::allocator<Assimp::Ogre::VertexElement>>::_Vector_impl_data" }
%"struct.std::_Vector_base<Assimp::Ogre::VertexElement, std::allocator<Assimp::Ogre::VertexElement>>::_Vector_impl_data" = type { ptr, ptr, ptr }
%"class.std::map.37" = type { %"class.std::_Rb_tree.38" }
%"class.std::_Rb_tree.38" = type { %"struct.std::_Rb_tree<unsigned short, std::pair<const unsigned short, std::shared_ptr<Assimp::MemoryIOStream>>, std::_Select1st<std::pair<const unsigned short, std::shared_ptr<Assimp::MemoryIOStream>>>, std::less<unsigned short>>::_Rb_tree_impl" }
%"struct.std::_Rb_tree<unsigned short, std::pair<const unsigned short, std::shared_ptr<Assimp::MemoryIOStream>>, std::_Select1st<std::pair<const unsigned short, std::shared_ptr<Assimp::MemoryIOStream>>>, std::less<unsigned short>>::_Rb_tree_impl" = type { [8 x i8], %"struct.std::_Rb_tree_header" }
%"class.__gnu_cxx::__normal_iterator.42" = type { ptr }

; Function Attrs: mustprogress nounwind uwtable
define hidden noundef i64 @_ZN6Assimp4Ogre13VertexElement8TypeSizeENS1_4TypeE(i32 noundef %0) #0 align 2 {
  %2 = alloca i64, align 8
  %3 = alloca i32, align 4
  store i32 %0, ptr %3, align 4
  %4 = load i32, ptr %3, align 4
  switch i32 %4, label %31 [
    i32 4, label %5
    i32 11, label %5
    i32 10, label %5
    i32 0, label %6
    i32 1, label %7
    i32 2, label %8
    i32 3, label %9
    i32 12, label %10
    i32 13, label %11
    i32 14, label %12
    i32 15, label %13
    i32 5, label %14
    i32 6, label %15
    i32 7, label %16
    i32 8, label %17
    i32 16, label %18
    i32 17, label %19
    i32 18, label %20
    i32 19, label %21
    i32 20, label %22
    i32 21, label %23
    i32 22, label %24
    i32 23, label %25
    i32 24, label %26
    i32 25, label %27
    i32 26, label %28
    i32 27, label %29
    i32 9, label %30
  ]

5:                                                ; preds = %1, %1, %1
  store i64 4, ptr %2, align 8
  br label %32

6:                                                ; preds = %1
  store i64 4, ptr %2, align 8
  br label %32

7:                                                ; preds = %1
  store i64 8, ptr %2, align 8
  br label %32

8:                                                ; preds = %1
  store i64 12, ptr %2, align 8
  br label %32

9:                                                ; preds = %1
  store i64 16, ptr %2, align 8
  br label %32

10:                                               ; preds = %1
  store i64 8, ptr %2, align 8
  br label %32

11:                                               ; preds = %1
  store i64 16, ptr %2, align 8
  br label %32

12:                                               ; preds = %1
  store i64 24, ptr %2, align 8
  br label %32

13:                                               ; preds = %1
  store i64 32, ptr %2, align 8
  br label %32

14:                                               ; preds = %1
  store i64 2, ptr %2, align 8
  br label %32

15:                                               ; preds = %1
  store i64 4, ptr %2, align 8
  br label %32

16:                                               ; preds = %1
  store i64 6, ptr %2, align 8
  br label %32

17:                                               ; preds = %1
  store i64 8, ptr %2, align 8
  br label %32

18:                                               ; preds = %1
  store i64 2, ptr %2, align 8
  br label %32

19:                                               ; preds = %1
  store i64 4, ptr %2, align 8
  br label %32

20:                                               ; preds = %1
  store i64 6, ptr %2, align 8
  br label %32

21:                                               ; preds = %1
  store i64 8, ptr %2, align 8
  br label %32

22:                                               ; preds = %1
  store i64 4, ptr %2, align 8
  br label %32

23:                                               ; preds = %1
  store i64 8, ptr %2, align 8
  br label %32

24:                                               ; preds = %1
  store i64 12, ptr %2, align 8
  br label %32

25:                                               ; preds = %1
  store i64 16, ptr %2, align 8
  br label %32

26:                                               ; preds = %1
  store i64 4, ptr %2, align 8
  br label %32

27:                                               ; preds = %1
  store i64 8, ptr %2, align 8
  br label %32

28:                                               ; preds = %1
  store i64 12, ptr %2, align 8
  br label %32

29:                                               ; preds = %1
  store i64 16, ptr %2, align 8
  br label %32

30:                                               ; preds = %1
  store i64 4, ptr %2, align 8
  br label %32

31:                                               ; preds = %1
  store i64 0, ptr %2, align 8
  br label %32

32:                                               ; preds = %31, %30, %29, %28, %27, %26, %25, %24, %23, %22, %21, %20, %19, %18, %17, %16, %15, %14, %13, %12, %11, %10, %9, %8, %7, %6, %5
  %33 = load i64, ptr %2, align 8
  ret i64 %33
}

; Function Attrs: mustprogress nounwind uwtable
define linkonce_odr hidden noundef nonnull align 8 dereferenceable(8) ptr @_ZNK9__gnu_cxx17__normal_iteratorIPKN6Assimp4Ogre13VertexElementESt6vectorIS3_SaIS3_EEE4baseEv(ptr noundef nonnull align 8 dereferenceable(8) %0) #0 comdat align 2 {
  %2 = alloca ptr, align 8
  store ptr %0, ptr %2, align 8
  %3 = load ptr, ptr %2, align 8
  %4 = getelementptr inbounds nuw %"class.__gnu_cxx::__normal_iterator.42", ptr %3, i32 0, i32 0
  ret ptr %4
}

; Function Attrs: mustprogress nounwind uwtable
define linkonce_odr hidden void @_ZN9__gnu_cxx17__normal_iteratorIPKN6Assimp4Ogre13VertexElementESt6vectorIS3_SaIS3_EEEC2ERKS5_(ptr noundef nonnull align 8 dereferenceable(8) %0, ptr noundef nonnull align 8 dereferenceable(8) %1) unnamed_addr #0 comdat align 2 {
  %3 = alloca ptr, align 8
  %4 = alloca ptr, align 8
  store ptr %0, ptr %3, align 8
  store ptr %1, ptr %4, align 8
  %5 = load ptr, ptr %3, align 8
  %6 = getelementptr inbounds nuw %"class.__gnu_cxx::__normal_iterator.42", ptr %5, i32 0, i32 0
  %7 = load ptr, ptr %4, align 8
  %8 = load ptr, ptr %7, align 8
  store ptr %8, ptr %6, align 8
  ret void
}

; Function Attrs: mustprogress nounwind uwtable
define linkonce_odr hidden noundef nonnull align 8 dereferenceable(8) ptr @_ZN9__gnu_cxx17__normal_iteratorIPKN6Assimp4Ogre13VertexElementESt6vectorIS3_SaIS3_EEEppEv(ptr noundef nonnull align 8 dereferenceable(8) %0) #0 comdat align 2 {
  %2 = alloca ptr, align 8
  store ptr %0, ptr %2, align 8
  %3 = load ptr, ptr %2, align 8
  %4 = getelementptr inbounds nuw %"class.__gnu_cxx::__normal_iterator.42", ptr %3, i32 0, i32 0
  %5 = load ptr, ptr %4, align 8
  %6 = getelementptr inbounds nuw %"class.Assimp::Ogre::VertexElement", ptr %5, i32 1
  store ptr %6, ptr %4, align 8
  ret ptr %3
}

; Function Attrs: mustprogress uwtable
define hidden noundef i64 @_ZNK6Assimp4Ogre13VertexElement4SizeEv(ptr noundef nonnull align 4 dereferenceable(16) %0) #1 align 2 {
  %2 = alloca ptr, align 8
  store ptr %0, ptr %2, align 8
  %3 = load ptr, ptr %2, align 8
  %4 = getelementptr inbounds nuw %"class.Assimp::Ogre::VertexElement", ptr %3, i32 0, i32 3
  %5 = load i32, ptr %4, align 4
  %6 = call noundef i64 @_ZN6Assimp4Ogre13VertexElement8TypeSizeENS1_4TypeE(i32 noundef %5)
  ret i64 %6
}

; Function Attrs: mustprogress nounwind uwtable
define linkonce_odr hidden noundef nonnull align 4 dereferenceable(16) ptr @_ZNK9__gnu_cxx17__normal_iteratorIPKN6Assimp4Ogre13VertexElementESt6vectorIS3_SaIS3_EEEdeEv(ptr noundef nonnull align 8 dereferenceable(8) %0) #0 comdat align 2 {
  %2 = alloca ptr, align 8
  store ptr %0, ptr %2, align 8
  %3 = load ptr, ptr %2, align 8
  %4 = getelementptr inbounds nuw %"class.__gnu_cxx::__normal_iterator.42", ptr %3, i32 0, i32 0
  %5 = load ptr, ptr %4, align 8
  ret ptr %5
}

; Function Attrs: inlinehint mustprogress nounwind uwtable
define linkonce_odr hidden noundef zeroext i1 @_ZN9__gnu_cxxneIPKN6Assimp4Ogre13VertexElementESt6vectorIS3_SaIS3_EEEEbRKNS_17__normal_iteratorIT_T0_EESE_(ptr noundef nonnull align 8 dereferenceable(8) %0, ptr noundef nonnull align 8 dereferenceable(8) %1) #3 comdat {
  %3 = alloca ptr, align 8
  %4 = alloca ptr, align 8
  store ptr %0, ptr %3, align 8
  store ptr %1, ptr %4, align 8
  %5 = load ptr, ptr %3, align 8
  %6 = call noundef nonnull align 8 dereferenceable(8) ptr @_ZNK9__gnu_cxx17__normal_iteratorIPKN6Assimp4Ogre13VertexElementESt6vectorIS3_SaIS3_EEE4baseEv(ptr noundef nonnull align 8 dereferenceable(8) %5) #20
  %7 = load ptr, ptr %6, align 8
  %8 = load ptr, ptr %4, align 8
  %9 = call noundef nonnull align 8 dereferenceable(8) ptr @_ZNK9__gnu_cxx17__normal_iteratorIPKN6Assimp4Ogre13VertexElementESt6vectorIS3_SaIS3_EEE4baseEv(ptr noundef nonnull align 8 dereferenceable(8) %8) #20
  %10 = load ptr, ptr %9, align 8
  %11 = icmp ne ptr %7, %10
  ret i1 %11
}

; Function Attrs: mustprogress nounwind uwtable
define linkonce_odr hidden ptr @_ZNKSt6vectorIN6Assimp4Ogre13VertexElementESaIS2_EE3endEv(ptr noundef nonnull align 8 dereferenceable(24) %0) #0 comdat align 2 {
  %2 = alloca %"class.__gnu_cxx::__normal_iterator.42", align 8
  %3 = alloca ptr, align 8
  store ptr %0, ptr %3, align 8
  %4 = load ptr, ptr %3, align 8
  %5 = getelementptr inbounds nuw %"struct.std::_Vector_base.33", ptr %4, i32 0, i32 0
  %6 = getelementptr inbounds nuw %"struct.std::_Vector_base<Assimp::Ogre::VertexElement, std::allocator<Assimp::Ogre::VertexElement>>::_Vector_impl_data", ptr %5, i32 0, i32 1
  call void @_ZN9__gnu_cxx17__normal_iteratorIPKN6Assimp4Ogre13VertexElementESt6vectorIS3_SaIS3_EEEC2ERKS5_(ptr noundef nonnull align 8 dereferenceable(8) %2, ptr noundef nonnull align 8 dereferenceable(8) %6) #20
  %7 = getelementptr inbounds nuw %"class.__gnu_cxx::__normal_iterator.42", ptr %2, i32 0, i32 0
  %8 = load ptr, ptr %7, align 8
  ret ptr %8
}

; Function Attrs: mustprogress nounwind uwtable
define linkonce_odr hidden ptr @_ZNKSt6vectorIN6Assimp4Ogre13VertexElementESaIS2_EE5beginEv(ptr noundef nonnull align 8 dereferenceable(24) %0) #0 comdat align 2 {
  %2 = alloca %"class.__gnu_cxx::__normal_iterator.42", align 8
  %3 = alloca ptr, align 8
  store ptr %0, ptr %3, align 8
  %4 = load ptr, ptr %3, align 8
  %5 = getelementptr inbounds nuw %"struct.std::_Vector_base.33", ptr %4, i32 0, i32 0
  %6 = getelementptr inbounds nuw %"struct.std::_Vector_base<Assimp::Ogre::VertexElement, std::allocator<Assimp::Ogre::VertexElement>>::_Vector_impl_data", ptr %5, i32 0, i32 0
  call void @_ZN9__gnu_cxx17__normal_iteratorIPKN6Assimp4Ogre13VertexElementESt6vectorIS3_SaIS3_EEEC2ERKS5_(ptr noundef nonnull align 8 dereferenceable(8) %2, ptr noundef nonnull align 8 dereferenceable(8) %6) #20
  %7 = getelementptr inbounds nuw %"class.__gnu_cxx::__normal_iterator.42", ptr %2, i32 0, i32 0
  %8 = load ptr, ptr %7, align 8
  ret ptr %8
}

; Function Attrs: mustprogress uwtable
define hidden noundef i32 @_ZNK6Assimp4Ogre10VertexData10VertexSizeEt(ptr noundef nonnull align 8 dereferenceable(200) %0, i16 noundef zeroext %1) #1 align 2 {
  %3 = alloca ptr, align 8
  %4 = alloca i16, align 2
  %5 = alloca i32, align 4
  %6 = alloca ptr, align 8
  %7 = alloca %"class.__gnu_cxx::__normal_iterator.42", align 8
  %8 = alloca %"class.__gnu_cxx::__normal_iterator.42", align 8
  %9 = alloca ptr, align 8
  store ptr %0, ptr %3, align 8
  store i16 %1, ptr %4, align 2
  %10 = load ptr, ptr %3, align 8
  call void @llvm.lifetime.start.p0(i64 4, ptr %5) #20
  store i32 0, ptr %5, align 4
  call void @llvm.lifetime.start.p0(i64 8, ptr %6) #20
  %11 = getelementptr inbounds nuw %"class.Assimp::Ogre::VertexData", ptr %10, i32 0, i32 1
  store ptr %11, ptr %6, align 8
  call void @llvm.lifetime.start.p0(i64 8, ptr %7) #20
  %12 = load ptr, ptr %6, align 8
  %13 = call ptr @_ZNKSt6vectorIN6Assimp4Ogre13VertexElementESaIS2_EE5beginEv(ptr noundef nonnull align 8 dereferenceable(24) %12) #20
  %14 = getelementptr inbounds nuw %"class.__gnu_cxx::__normal_iterator.42", ptr %7, i32 0, i32 0
  store ptr %13, ptr %14, align 8
  call void @llvm.lifetime.start.p0(i64 8, ptr %8) #20
  %15 = load ptr, ptr %6, align 8
  %16 = call ptr @_ZNKSt6vectorIN6Assimp4Ogre13VertexElementESaIS2_EE3endEv(ptr noundef nonnull align 8 dereferenceable(24) %15) #20
  %17 = getelementptr inbounds nuw %"class.__gnu_cxx::__normal_iterator.42", ptr %8, i32 0, i32 0
  store ptr %16, ptr %17, align 8
  br label %18

18:                                               ; preds = %37, %2
  %19 = call noundef zeroext i1 @_ZN9__gnu_cxxneIPKN6Assimp4Ogre13VertexElementESt6vectorIS3_SaIS3_EEEEbRKNS_17__normal_iteratorIT_T0_EESE_(ptr noundef nonnull align 8 dereferenceable(8) %7, ptr noundef nonnull align 8 dereferenceable(8) %8) #20
  br i1 %19, label %21, label %20

20:                                               ; preds = %18
  call void @llvm.lifetime.end.p0(i64 8, ptr %8) #20
  call void @llvm.lifetime.end.p0(i64 8, ptr %7) #20
  call void @llvm.lifetime.end.p0(i64 8, ptr %6) #20
  br label %39

21:                                               ; preds = %18
  call void @llvm.lifetime.start.p0(i64 8, ptr %9) #20
  %22 = call noundef nonnull align 4 dereferenceable(16) ptr @_ZNK9__gnu_cxx17__normal_iteratorIPKN6Assimp4Ogre13VertexElementESt6vectorIS3_SaIS3_EEEdeEv(ptr noundef nonnull align 8 dereferenceable(8) %7) #20
  store ptr %22, ptr %9, align 8
  %23 = load ptr, ptr %9, align 8
  %24 = getelementptr inbounds nuw %"class.Assimp::Ogre::VertexElement", ptr %23, i32 0, i32 1
  %25 = load i16, ptr %24, align 2
  %26 = zext i16 %25 to i32
  %27 = load i16, ptr %4, align 2
  %28 = zext i16 %27 to i32
  %29 = icmp eq i32 %26, %28
  br i1 %29, label %30, label %36

30:                                               ; preds = %21
  %31 = load ptr, ptr %9, align 8
  %32 = call noundef i64 @_ZNK6Assimp4Ogre13VertexElement4SizeEv(ptr noundef nonnull align 4 dereferenceable(16) %31)
  %33 = trunc i64 %32 to i32
  %34 = load i32, ptr %5, align 4
  %35 = add i32 %34, %33
  store i32 %35, ptr %5, align 4
  br label %36

36:                                               ; preds = %30, %21
  call void @llvm.lifetime.end.p0(i64 8, ptr %9) #20
  br label %37

37:                                               ; preds = %36
  %38 = call noundef nonnull align 8 dereferenceable(8) ptr @_ZN9__gnu_cxx17__normal_iteratorIPKN6Assimp4Ogre13VertexElementESt6vectorIS3_SaIS3_EEEppEv(ptr noundef nonnull align 8 dereferenceable(8) %7) #20
  br label %18

39:                                               ; preds = %20
  %40 = load i32, ptr %5, align 4
  call void @llvm.lifetime.end.p0(i64 4, ptr %5) #20
  ret i32 %40
}