; Function Attrs: mustprogress nofree norecurse nosync nounwind willreturn memory(read, inaccessiblemem: none) uwtable
define hidden noundef i32 @_ZNK6Assimp4Ogre10VertexData10VertexSizeEt(ptr noundef nonnull readonly align 8 captures(none) dereferenceable(200) %0, i16 noundef zeroext %1) local_unnamed_addr #9 align 2 {
  %3 = getelementptr inbounds nuw i8, ptr %0, i64 128
  %4 = load ptr, ptr %3, align 8
  %5 = getelementptr inbounds nuw i8, ptr %0, i64 136
  %6 = load ptr, ptr %5, align 8
  %.not10 = icmp eq ptr %4, %6
  br i1 %.not10, label %._crit_edge, label %.lr.ph

._crit_edge:                                      ; preds = %16, %2
  %.0.lcssa = phi i32 [ 0, %2 ], [ %.1, %16 ]
  ret i32 %.0.lcssa

.lr.ph:                                           ; preds = %2, %16
  %.012 = phi i32 [ %.1, %16 ], [ 0, %2 ]
  %.sroa.07.011 = phi ptr [ %17, %16 ], [ %4, %2 ]
  %7 = getelementptr inbounds nuw i8, ptr %.sroa.07.011, i64 2
  %8 = load i16, ptr %7, align 2
  %9 = icmp eq i16 %8, %1
  br i1 %9, label %10, label %16

10:                                               ; preds = %.lr.ph
  %11 = getelementptr inbounds nuw i8, ptr %.sroa.07.011, i64 8
  %12 = load i32, ptr %11, align 4
  %13 = icmp ult i32 %12, 28
  br i1 %13, label %switch.lookup, label %_ZNK6Assimp4Ogre13VertexElement4SizeEv.exit

switch.lookup:                                    ; preds = %10
  %14 = zext nneg i32 %12 to i64
  %switch.gep = getelementptr inbounds nuw [28 x i32], ptr @switch.table._ZN6Assimp4Ogre7SubMesh19ConvertToAssimpMeshEPNS0_4MeshE.7, i64 0, i64 %14
  %switch.load = load i32, ptr %switch.gep, align 4
  br label %_ZNK6Assimp4Ogre13VertexElement4SizeEv.exit

_ZNK6Assimp4Ogre13VertexElement4SizeEv.exit:      ; preds = %10, %switch.lookup
  %.0.i.i = phi i32 [ %switch.load, %switch.lookup ], [ 0, %10 ]
  %15 = add i32 %.0.i.i, %.012
  br label %16

16:                                               ; preds = %_ZNK6Assimp4Ogre13VertexElement4SizeEv.exit, %.lr.ph
  %.1 = phi i32 [ %15, %_ZNK6Assimp4Ogre13VertexElement4SizeEv.exit ], [ %.012, %.lr.ph ]
  %17 = getelementptr inbounds nuw i8, ptr %.sroa.07.011, i64 16
  %.not = icmp eq ptr %17, %6
  br i1 %.not, label %._crit_edge, label %.lr.ph
}